; Function Attrs: mustprogress uwtable
define dso_local void @_ZN18cmWorkerPoolWorkerC2ER9uv_loop_s(ptr noundef nonnull align 8 dereferenceable(120) %0, ptr noundef nonnull align 8 dereferenceable(848) %1) unnamed_addr #0 align 2 personality ptr @__gxx_personality_v0 {
  tail call void @llvm.memset.p0.i64(ptr noundef nonnull align 8 dereferenceable(40) %0, i8 0, i64 40, i1 false)
  %3 = getelementptr inbounds i8, ptr %0, i64 40
  tail call void @_ZN2cm19uv_handle_ptr_base_I10uv_async_sEC2Ev(ptr noundef nonnull align 8 dereferenceable(16) %3)
  %4 = getelementptr inbounds i8, ptr %0, i64 56
  tail call void @_ZNSt18condition_variableC1Ev(ptr noundef nonnull align 8 dereferenceable(48) %4) #20
  %5 = getelementptr inbounds i8, ptr %0, i64 104
  tail call void @llvm.memset.p0.i64(ptr noundef nonnull align 8 dereferenceable(16) %5, i8 0, i64 16, i1 false)
  %6 = invoke noundef i32 @_ZN2cm12uv_async_ptr4initER9uv_loop_sPFvP10uv_async_sEPv(ptr noundef nonnull align 8 dereferenceable(16) %3, ptr noundef nonnull align 8 dereferenceable(848) %1, ptr noundef nonnull @_ZN18cmWorkerPoolWorker14UVProcessStartEP10uv_async_s, ptr noundef nonnull %0)
          to label %7 unwind label %8

7:                                                ; preds = %2
  ret void

8:                                                ; preds = %2
  %9 = landingpad { ptr, i32 }
          cleanup
  %10 = getelementptr inbounds i8, ptr %0, i64 112
  %.sroa.0.0.copyload.i.i = load i64, ptr %10, align 8
  %.not.i = icmp eq i64 %.sroa.0.0.copyload.i.i, 0
  br i1 %.not.i, label %_ZNSt6threadD2Ev.exit, label %11

11:                                               ; preds = %8
  tail call void @_ZSt9terminatev() #19
  unreachable

_ZNSt6threadD2Ev.exit:                            ; preds = %8
  tail call void @_ZN18cmWorkerPoolWorkerUt_D2Ev(ptr noundef nonnull align 8 dereferenceable(112) %0) #20
  resume { ptr, i32 } %9
}